; Function Attrs: nounwind uwtable
define dso_local void @prte_info_out(ptr noundef %0, ptr noundef %1, ptr noundef %2) local_unnamed_addr #0 {
  %4 = alloca ptr, align 8
  %5 = alloca ptr, align 8
  %6 = alloca %struct.winsize, align 2
  call void @llvm.lifetime.start.p0(i64 8, ptr nonnull %4) #9
  store ptr null, ptr %4, align 8, !tbaa !4
  call void @llvm.lifetime.start.p0(i64 8, ptr nonnull %5) #9
  store ptr null, ptr %5, align 8, !tbaa !4
  call void @llvm.lifetime.start.p0(i64 8, ptr nonnull %6) #9
  %7 = call i32 (i32, i64, ...) @ioctl(i32 noundef 1, i64 noundef 21523, ptr noundef nonnull %6) #9
  %8 = icmp sgt i32 %7, -1
  br i1 %8, label %9, label %13

9:                                                ; preds = %3
  %10 = getelementptr inbounds nuw i8, ptr %6, i64 2
  %11 = load i16, ptr %10, align 2, !tbaa !9
  %12 = zext i16 %11 to i32
  store i32 %12, ptr @screen_width, align 4, !tbaa !12
  br label %13

13:                                               ; preds = %9, %3
  call void @llvm.lifetime.end.p0(i64 8, ptr nonnull %6) #9
  %14 = call noalias ptr @strdup(ptr noundef %2) #9
  %15 = call i64 @strlen(ptr noundef nonnull dereferenceable(1) %14) #10
  %16 = tail call ptr @__ctype_b_loc() #11
  %17 = load ptr, ptr %16, align 8, !tbaa !14
  %18 = load i8, ptr %14, align 1, !tbaa !16
  %19 = sext i8 %18 to i64
  %20 = getelementptr inbounds i16, ptr %17, i64 %19
  %21 = load i16, ptr %20, align 2, !tbaa !17
  %22 = and i16 %21, 8192
  %.not = icmp eq i16 %22, 0
  br i1 %.not, label %37, label %.preheader80

.preheader80:                                     ; preds = %13, %.preheader80
  %.0 = phi i64 [ %32, %.preheader80 ], [ 0, %13 ]
  %23 = getelementptr inbounds nuw i8, ptr %14, i64 %.0
  %24 = load i8, ptr %23, align 1, !tbaa !16
  %25 = sext i8 %24 to i64
  %26 = getelementptr inbounds i16, ptr %17, i64 %25
  %27 = load i16, ptr %26, align 2, !tbaa !17
  %28 = and i16 %27, 8192
  %29 = icmp ne i16 %28, 0
  %30 = icmp ult i64 %.0, %15
  %31 = select i1 %29, i1 %30, i1 false
  %32 = add nuw i64 %.0, 1
  br i1 %31, label %.preheader80, label %33, !llvm.loop !18

33:                                               ; preds = %.preheader80
  %34 = getelementptr inbounds nuw i8, ptr %14, i64 %.0
  %35 = call noalias ptr @strdup(ptr noundef nonnull %34) #9
  call void @free(ptr noundef nonnull %14) #9
  %36 = call i64 @strlen(ptr noundef nonnull dereferenceable(1) %35) #10
  br label %37

37:                                               ; preds = %33, %13
  %.059 = phi i64 [ %36, %33 ], [ %15, %13 ]
  %.058 = phi ptr [ %35, %33 ], [ %14, %13 ]
  %.not71 = icmp eq i64 %.059, 0
  br i1 %.not71, label %58, label %38

38:                                               ; preds = %37
  %39 = add i64 %.059, -1
  %40 = getelementptr inbounds nuw i8, ptr %.058, i64 %39
  %41 = load i8, ptr %40, align 1, !tbaa !16
  %42 = sext i8 %41 to i64
  %43 = getelementptr inbounds i16, ptr %17, i64 %42
  %44 = load i16, ptr %43, align 2, !tbaa !17
  %45 = and i16 %44, 8192
  %.not72 = icmp eq i16 %45, 0
  br i1 %.not72, label %58, label %.preheader

.preheader:                                       ; preds = %38, %.preheader
  %.1 = phi i64 [ %55, %.preheader ], [ %39, %38 ]
  %46 = getelementptr inbounds nuw i8, ptr %.058, i64 %.1
  %47 = load i8, ptr %46, align 1, !tbaa !16
  %48 = sext i8 %47 to i64
  %49 = getelementptr inbounds i16, ptr %17, i64 %48
  %50 = load i16, ptr %49, align 2, !tbaa !17
  %51 = and i16 %50, 8192
  %52 = icmp ne i16 %51, 0
  %53 = icmp ne i64 %.1, 0
  %54 = and i1 %53, %52
  %55 = add i64 %.1, -1
  br i1 %54, label %.preheader, label %56, !llvm.loop !20

56:                                               ; preds = %.preheader
  %57 = getelementptr inbounds nuw i8, ptr %.058, i64 %.1
  store i8 0, ptr %57, align 1, !tbaa !16
  br label %58

58:                                               ; preds = %56, %38, %37
  %59 = load i8, ptr @prte_info_pretty, align 1, !tbaa !21, !range !23, !noundef !24
  %60 = trunc nuw i8 %59 to i1
  %61 = icmp ne ptr %0, null
  %or.cond = and i1 %61, %60
  br i1 %or.cond, label %62, label %110

62:                                               ; preds = %58
  %63 = call i64 @strlen(ptr noundef nonnull dereferenceable(1) %0) #10
  %64 = trunc i64 %63 to i32
  %65 = icmp slt i32 %64, 24
  br i1 %65, label %66, label %69

66:                                               ; preds = %62
  %67 = sub nsw i32 24, %64
  %68 = call i32 (ptr, ptr, ...) @pmix_asprintf(ptr noundef nonnull %4, ptr noundef nonnull @.str, i32 noundef %67, ptr noundef nonnull @.str.1) #9
  %.pre = load ptr, ptr %4, align 8, !tbaa !4
  br label %71

69:                                               ; preds = %62
  %70 = call noalias dereferenceable_or_null(1) ptr @strdup(ptr noundef nonnull @.str.2) #9
  store ptr %70, ptr %4, align 8, !tbaa !4
  br label %71

71:                                               ; preds = %69, %66
  %72 = phi ptr [ %70, %69 ], [ %.pre, %66 ]
  %73 = load i32, ptr @screen_width, align 4, !tbaa !12
  %74 = zext nneg i32 %73 to i64
  %75 = call i64 @strlen(ptr noundef nonnull dereferenceable(1) %72) #10
  %76 = call i64 @strlen(ptr noundef nonnull dereferenceable(1) %0) #10
  %.neg79 = add nsw i64 %74, -2
  %77 = add i64 %75, %76
  %78 = sub i64 %.neg79, %77
  %.not75 = icmp eq i64 %76, 0
  br i1 %.not75, label %81, label %79

79:                                               ; preds = %71
  %80 = call i32 (ptr, ptr, ...) @pmix_asprintf(ptr noundef nonnull %5, ptr noundef nonnull @.str.3, ptr noundef nonnull %72, ptr noundef nonnull %0) #9
  br label %83

81:                                               ; preds = %71
  %82 = call i32 (ptr, ptr, ...) @pmix_asprintf(ptr noundef nonnull %5, ptr noundef nonnull @.str.4, ptr noundef nonnull %72) #9
  br label %83

83:                                               ; preds = %81, %79
  %84 = load ptr, ptr %4, align 8, !tbaa !4
  call void @free(ptr noundef %84) #9
  store ptr null, ptr %4, align 8, !tbaa !4
  %85 = call i64 @strlen(ptr noundef nonnull dereferenceable(1) %.058) #10
  %86 = icmp ult i64 %85, %78
  br i1 %86, label %._crit_edge, label %.lr.ph

.lr.ph:                                           ; preds = %83, %95
  %.16183 = phi ptr [ %.2, %95 ], [ %.058, %83 ]
  %87 = call i32 (ptr, ptr, ...) @pmix_asprintf(ptr noundef nonnull %4, ptr noundef nonnull @.str, i32 noundef 26, ptr noundef nonnull @.str.1) #9
  %88 = getelementptr inbounds nuw i8, ptr %.16183, i64 %78
  %89 = load i8, ptr %88, align 1, !tbaa !16
  store i8 0, ptr %88, align 1, !tbaa !16
  %90 = call ptr @strrchr(ptr noundef nonnull dereferenceable(1) %.16183, i32 noundef 32) #10
  store i8 %89, ptr %88, align 1, !tbaa !16
  %91 = icmp eq ptr %90, null
  br i1 %91, label %92, label %95

92:                                               ; preds = %.lr.ph
  %93 = call ptr @strchr(ptr noundef nonnull dereferenceable(1) %88, i32 noundef 32) #10
  %94 = icmp eq ptr %93, null
  br i1 %94, label %._crit_edge, label %95

95:                                               ; preds = %.lr.ph, %92
  %.sink = phi ptr [ %93, %92 ], [ %90, %.lr.ph ]
  store i8 0, ptr %.sink, align 1, !tbaa !16
  %96 = load ptr, ptr %5, align 8, !tbaa !4
  %97 = call i32 (ptr, ...) @printf(ptr noundef nonnull dereferenceable(1) @.str.5, ptr noundef %96, ptr noundef nonnull %.16183)
  %.2 = getelementptr inbounds nuw i8, ptr %.sink, i64 1
  %98 = load ptr, ptr %5, align 8, !tbaa !4
  call void @free(ptr noundef %98) #9
  %99 = load ptr, ptr %4, align 8, !tbaa !4
  %100 = call noalias ptr @strdup(ptr noundef %99) #9
  store ptr %100, ptr %5, align 8, !tbaa !4
  call void @free(ptr noundef %99) #9
  store ptr null, ptr %4, align 8, !tbaa !4
  %101 = call i64 @strlen(ptr noundef nonnull dereferenceable(1) %.2) #10
  %102 = icmp ult i64 %101, %78
  br i1 %102, label %._crit_edge, label %.lr.ph

._crit_edge:                                      ; preds = %92, %95, %83
  %.16183.lcssa.sink = phi ptr [ %.058, %83 ], [ %.2, %95 ], [ %.16183, %92 ]
  %103 = load ptr, ptr %5, align 8, !tbaa !4
  %104 = call i32 (ptr, ...) @printf(ptr noundef nonnull dereferenceable(1) @.str.5, ptr noundef %103, ptr noundef nonnull %.16183.lcssa.sink)
  %105 = load ptr, ptr %5, align 8, !tbaa !4
  %.not76 = icmp eq ptr %105, null
  br i1 %.not76, label %107, label %106

106:                                              ; preds = %._crit_edge
  call void @free(ptr noundef nonnull %105) #9
  br label %107

107:                                              ; preds = %106, %._crit_edge
  %108 = load ptr, ptr %4, align 8, !tbaa !4
  %.not77 = icmp eq ptr %108, null
  br i1 %.not77, label %116, label %109

109:                                              ; preds = %107
  call void @free(ptr noundef nonnull %108) #9
  br label %116

110:                                              ; preds = %58
  %.not73 = icmp eq ptr %1, null
  br i1 %.not73, label %114, label %111

111:                                              ; preds = %110
  %char0 = load i8, ptr %1, align 1
  %.not74 = icmp eq i8 %char0, 0
  br i1 %.not74, label %114, label %112

112:                                              ; preds = %111
  %113 = call i32 (ptr, ...) @printf(ptr noundef nonnull dereferenceable(1) @.str.6, ptr noundef nonnull %1, ptr noundef %2)
  br label %116

114:                                              ; preds = %111, %110
  %115 = call i32 (ptr, ...) @printf(ptr noundef nonnull dereferenceable(1) @.str.7, ptr noundef %2)
  br label %116

116:                                              ; preds = %109, %107, %114, %112
  call void @free(ptr noundef %.058) #9
  call void @llvm.lifetime.end.p0(i64 8, ptr nonnull %5) #9
  call void @llvm.lifetime.end.p0(i64 8, ptr nonnull %4) #9
  ret void
}